target datalayout = "e-m:e-p270:32:32-p271:32:32-p272:64:64-i64:64-i128:128-f80:128-n8:16:32:64-S128"
target triple = "x86_64-pc-linux-gnu"

%struct.VLC = type { i32, ptr, i32, i32 }
%struct.IVIHuffDesc = type { i32, [16 x i8] }
%struct.IVIHuffTab = type { i32, ptr, %struct.IVIHuffDesc, %struct.VLC }
%struct.IVIPlaneDesc = type { i16, i16, i8, ptr }
%struct.IVIBandDesc = type { i32, i32, i32, i32, i32, ptr, i32, ptr, ptr, ptr, [4 x ptr], i64, i32, i32, i32, i32, i32, i32, i32, i32, i32, ptr, i32, %struct.IVIHuffTab, i32, [122 x i8], i32, ptr, i32, ptr, ptr, i32, ptr, i32, i32, i32, i32, ptr, ptr, ptr, ptr }

; Function Attrs: alwaysinline nounwind willreturn memory(none) uwtable
define internal zeroext i8 @av_clip_uint8_c(i32 noundef %0) #9 {
  %2 = alloca i8, align 1
  %3 = alloca i32, align 4
  store i32 %0, ptr %3, align 4, !tbaa !4
  %4 = load i32, ptr %3, align 4, !tbaa !4
  %5 = and i32 %4, -256
  %6 = icmp ne i32 %5, 0
  br i1 %6, label %7, label %12

7:                                                ; preds = %1
  %8 = load i32, ptr %3, align 4, !tbaa !4
  %9 = xor i32 %8, -1
  %10 = ashr i32 %9, 31
  %11 = trunc i32 %10 to i8
  store i8 %11, ptr %2, align 1
  br label %15

12:                                               ; preds = %1
  %13 = load i32, ptr %3, align 4, !tbaa !4
  %14 = trunc i32 %13 to i8
  store i8 %14, ptr %2, align 1
  br label %15

15:                                               ; preds = %12, %7
  %16 = load i8, ptr %2, align 1
  ret i8 %16
}

; Function Attrs: nounwind uwtable
define internal void @ivi_output_plane(ptr noundef %0, ptr noundef %1, i64 noundef %2) #2 {
  %4 = alloca ptr, align 8
  %5 = alloca ptr, align 8
  %6 = alloca i64, align 8
  %7 = alloca i32, align 4
  %8 = alloca i32, align 4
  %9 = alloca ptr, align 8
  %10 = alloca i64, align 8
  %11 = alloca i32, align 4
  %12 = alloca i32, align 4
  %13 = alloca i32, align 4
  %14 = alloca i32, align 4
  store ptr %0, ptr %4, align 8, !tbaa !43
  store ptr %1, ptr %5, align 8, !tbaa !126
  store i64 %2, ptr %6, align 8, !tbaa !170
  call void @llvm.lifetime.start.p0(i64 4, ptr %7) #12
  call void @llvm.lifetime.start.p0(i64 4, ptr %8) #12
  call void @llvm.lifetime.start.p0(i64 8, ptr %9) #12
  %15 = load ptr, ptr %4, align 8, !tbaa !43
  %16 = getelementptr inbounds nuw %struct.IVIPlaneDesc, ptr %15, i32 0, i32 3
  %17 = load ptr, ptr %16, align 8, !tbaa !75
  %18 = getelementptr inbounds %struct.IVIBandDesc, ptr %17, i64 0
  %19 = getelementptr inbounds nuw %struct.IVIBandDesc, ptr %18, i32 0, i32 7
  %20 = load ptr, ptr %19, align 8, !tbaa !144
  store ptr %20, ptr %9, align 8, !tbaa !86
  call void @llvm.lifetime.start.p0(i64 8, ptr %10) #12
  %21 = load ptr, ptr %4, align 8, !tbaa !43
  %22 = getelementptr inbounds nuw %struct.IVIPlaneDesc, ptr %21, i32 0, i32 3
  %23 = load ptr, ptr %22, align 8, !tbaa !75
  %24 = getelementptr inbounds %struct.IVIBandDesc, ptr %23, i64 0
  %25 = getelementptr inbounds nuw %struct.IVIBandDesc, ptr %24, i32 0, i32 11
  %26 = load i64, ptr %25, align 8, !tbaa !84
  store i64 %26, ptr %10, align 8, !tbaa !170
  %27 = load ptr, ptr %9, align 8, !tbaa !86
  %28 = icmp ne ptr %27, null
  br i1 %28, label %30, label %29

29:                                               ; preds = %3
  store i32 1, ptr %11, align 4
  br label %104

30:                                               ; preds = %3
  store i32 0, ptr %8, align 4, !tbaa !4
  br label %31

31:                                               ; preds = %100, %30
  %32 = load i32, ptr %8, align 4, !tbaa !4
  %33 = load ptr, ptr %4, align 8, !tbaa !43
  %34 = getelementptr inbounds nuw %struct.IVIPlaneDesc, ptr %33, i32 0, i32 1
  %35 = load i16, ptr %34, align 2, !tbaa !73
  %36 = zext i16 %35 to i32
  %37 = icmp slt i32 %32, %36
  br i1 %37, label %38, label %103

38:                                               ; preds = %31
  call void @llvm.lifetime.start.p0(i64 4, ptr %12) #12
  store i32 0, ptr %12, align 4, !tbaa !4
  call void @llvm.lifetime.start.p0(i64 4, ptr %13) #12
  %39 = load ptr, ptr %4, align 8, !tbaa !43
  %40 = getelementptr inbounds nuw %struct.IVIPlaneDesc, ptr %39, i32 0, i32 0
  %41 = load i16, ptr %40, align 8, !tbaa !70
  %42 = zext i16 %41 to i32
  store i32 %42, ptr %13, align 4, !tbaa !4
  store i32 0, ptr %7, align 4, !tbaa !4
  br label %43

43:                                               ; preds = %64, %38
  %44 = load i32, ptr %7, align 4, !tbaa !4
  %45 = load i32, ptr %13, align 4, !tbaa !4
  %46 = icmp slt i32 %44, %45
  br i1 %46, label %47, label %67

47:                                               ; preds = %43
  call void @llvm.lifetime.start.p0(i64 4, ptr %14) #12
  %48 = load ptr, ptr %9, align 8, !tbaa !86
  %49 = load i32, ptr %7, align 4, !tbaa !4
  %50 = sext i32 %49 to i64
  %51 = getelementptr inbounds i16, ptr %48, i64 %50
  %52 = load i16, ptr %51, align 2, !tbaa !39
  %53 = sext i16 %52 to i32
  %54 = add nsw i32 %53, 128
  store i32 %54, ptr %14, align 4, !tbaa !4
  %55 = load i32, ptr %14, align 4, !tbaa !4
  %56 = trunc i32 %55 to i8
  %57 = load ptr, ptr %5, align 8, !tbaa !126
  %58 = load i32, ptr %7, align 4, !tbaa !4
  %59 = sext i32 %58 to i64
  %60 = getelementptr inbounds i8, ptr %57, i64 %59
  store i8 %56, ptr %60, align 1, !tbaa !27
  %61 = load i32, ptr %14, align 4, !tbaa !4
  %62 = load i32, ptr %12, align 4, !tbaa !4
  %63 = or i32 %62, %61
  store i32 %63, ptr %12, align 4, !tbaa !4
  call void @llvm.lifetime.end.p0(i64 4, ptr %14) #12
  br label %64

64:                                               ; preds = %47
  %65 = load i32, ptr %7, align 4, !tbaa !4
  %66 = add nsw i32 %65, 1
  store i32 %66, ptr %7, align 4, !tbaa !4
  br label %43, !llvm.loop !171

67:                                               ; preds = %43
  %68 = load i32, ptr %12, align 4, !tbaa !4
  %69 = and i32 %68, -256
  %70 = icmp ne i32 %69, 0
  br i1 %70, label %71, label %93

71:                                               ; preds = %67
  store i32 0, ptr %7, align 4, !tbaa !4
  br label %72

72:                                               ; preds = %89, %71
  %73 = load i32, ptr %7, align 4, !tbaa !4
  %74 = load i32, ptr %13, align 4, !tbaa !4
  %75 = icmp slt i32 %73, %74
  br i1 %75, label %76, label %92

76:                                               ; preds = %72
  %77 = load ptr, ptr %9, align 8, !tbaa !86
  %78 = load i32, ptr %7, align 4, !tbaa !4
  %79 = sext i32 %78 to i64
  %80 = getelementptr inbounds i16, ptr %77, i64 %79
  %81 = load i16, ptr %80, align 2, !tbaa !39
  %82 = sext i16 %81 to i32
  %83 = add nsw i32 %82, 128
  %84 = call zeroext i8 @av_clip_uint8_c(i32 noundef %83) #13
  %85 = load ptr, ptr %5, align 8, !tbaa !126
  %86 = load i32, ptr %7, align 4, !tbaa !4
  %87 = sext i32 %86 to i64
  %88 = getelementptr inbounds i8, ptr %85, i64 %87
  store i8 %84, ptr %88, align 1, !tbaa !27
  br label %89

89:                                               ; preds = %76
  %90 = load i32, ptr %7, align 4, !tbaa !4
  %91 = add nsw i32 %90, 1
  store i32 %91, ptr %7, align 4, !tbaa !4
  br label %72, !llvm.loop !172

92:                                               ; preds = %72
  br label %93

93:                                               ; preds = %92, %67
  %94 = load i64, ptr %10, align 8, !tbaa !170
  %95 = load ptr, ptr %9, align 8, !tbaa !86
  %96 = getelementptr inbounds i16, ptr %95, i64 %94
  store ptr %96, ptr %9, align 8, !tbaa !86
  %97 = load i64, ptr %6, align 8, !tbaa !170
  %98 = load ptr, ptr %5, align 8, !tbaa !126
  %99 = getelementptr inbounds i8, ptr %98, i64 %97
  store ptr %99, ptr %5, align 8, !tbaa !126
  call void @llvm.lifetime.end.p0(i64 4, ptr %13) #12
  call void @llvm.lifetime.end.p0(i64 4, ptr %12) #12
  br label %100

100:                                              ; preds = %93
  %101 = load i32, ptr %8, align 4, !tbaa !4
  %102 = add nsw i32 %101, 1
  store i32 %102, ptr %8, align 4, !tbaa !4
  br label %31, !llvm.loop !173

103:                                              ; preds = %31
  store i32 0, ptr %11, align 4
  br label %104

104:                                              ; preds = %103, %29
  call void @llvm.lifetime.end.p0(i64 8, ptr %10) #12
  call void @llvm.lifetime.end.p0(i64 8, ptr %9) #12
  call void @llvm.lifetime.end.p0(i64 4, ptr %8) #12
  call void @llvm.lifetime.end.p0(i64 4, ptr %7) #12
  %105 = load i32, ptr %11, align 4
  switch i32 %105, label %107 [
    i32 0, label %106
    i32 1, label %106
  ]

106:                                              ; preds = %104, %104
  ret void

107:                                              ; preds = %104
  unreachable
}