; Function Attrs: nofree norecurse nosync nounwind memory(read, argmem: readwrite, inaccessiblemem: none) uwtable
define internal fastcc void @ivi_output_plane(ptr noundef readonly captures(none) %0, ptr noundef writeonly captures(none) %1, i64 noundef range(i64 -2147483648, 2147483648) %2) unnamed_addr #5 {
  %4 = getelementptr inbounds nuw i8, ptr %0, i64 8
  %5 = load ptr, ptr %4, align 8, !tbaa !61
  %6 = getelementptr inbounds nuw i8, ptr %5, i64 40
  %7 = load ptr, ptr %6, align 8, !tbaa !123
  %8 = getelementptr inbounds nuw i8, ptr %5, i64 96
  %9 = load i64, ptr %8, align 8, !tbaa !69
  %.not = icmp eq ptr %7, null
  br i1 %.not, label %.loopexit36, label %.preheader35

.preheader35:                                     ; preds = %3
  %10 = getelementptr inbounds nuw i8, ptr %0, i64 2
  %11 = load i16, ptr %10, align 2, !tbaa !59
  %.not45 = icmp eq i16 %11, 0
  br i1 %.not45, label %.loopexit36, label %.lr.ph44

.lr.ph44:                                         ; preds = %.preheader35, %.loopexit
  %.043 = phi ptr [ %29, %.loopexit ], [ %1, %.preheader35 ]
  %.03042 = phi i32 [ %30, %.loopexit ], [ 0, %.preheader35 ]
  %.03141 = phi ptr [ %28, %.loopexit ], [ %7, %.preheader35 ]
  %12 = load i16, ptr %0, align 8, !tbaa !56
  %.not46 = icmp eq i16 %12, 0
  br i1 %.not46, label %.loopexit, label %.lr.ph.preheader

.lr.ph.preheader:                                 ; preds = %.lr.ph44
  %wide.trip.count = zext i16 %12 to i64
  br label %.lr.ph

.lr.ph:                                           ; preds = %.lr.ph.preheader, %.lr.ph
  %indvars.iv = phi i64 [ 0, %.lr.ph.preheader ], [ %indvars.iv.next, %.lr.ph ]
  %.02937 = phi i32 [ 0, %.lr.ph.preheader ], [ %19, %.lr.ph ]
  %13 = getelementptr inbounds nuw i16, ptr %.03141, i64 %indvars.iv
  %14 = load i16, ptr %13, align 2, !tbaa !29
  %15 = sext i16 %14 to i32
  %16 = add nsw i32 %15, 128
  %17 = trunc i32 %16 to i8
  %18 = getelementptr inbounds nuw i8, ptr %.043, i64 %indvars.iv
  store i8 %17, ptr %18, align 1, !tbaa !23
  %19 = or i32 %16, %.02937
  %indvars.iv.next = add nuw nsw i64 %indvars.iv, 1
  %exitcond.not = icmp eq i64 %indvars.iv.next, %wide.trip.count
  br i1 %exitcond.not, label %._crit_edge, label %.lr.ph, !llvm.loop !184

._crit_edge:                                      ; preds = %.lr.ph
  %20 = icmp ugt i32 %19, 255
  br i1 %20, label %.lr.ph40.preheader, label %.loopexit

.lr.ph40.preheader:                               ; preds = %._crit_edge
  %wide.trip.count51 = zext i16 %12 to i64
  br label %.lr.ph40

.lr.ph40:                                         ; preds = %.lr.ph40.preheader, %.lr.ph40
  %indvars.iv48 = phi i64 [ 0, %.lr.ph40.preheader ], [ %indvars.iv.next49, %.lr.ph40 ]
  %21 = getelementptr inbounds nuw i16, ptr %.03141, i64 %indvars.iv48
  %22 = load i16, ptr %21, align 2, !tbaa !29
  %23 = sext i16 %22 to i32
  %24 = add nsw i32 %23, 128
  %.not.i = icmp ult i32 %24, 256
  %isnotneg.i = icmp sgt i16 %22, -129
  %25 = sext i1 %isnotneg.i to i8
  %26 = trunc nuw i32 %24 to i8
  %.0.i = select i1 %.not.i, i8 %26, i8 %25
  %27 = getelementptr inbounds nuw i8, ptr %.043, i64 %indvars.iv48
  store i8 %.0.i, ptr %27, align 1, !tbaa !23
  %indvars.iv.next49 = add nuw nsw i64 %indvars.iv48, 1
  %exitcond52.not = icmp eq i64 %indvars.iv.next49, %wide.trip.count51
  br i1 %exitcond52.not, label %.loopexit, label %.lr.ph40, !llvm.loop !185

.loopexit:                                        ; preds = %.lr.ph40, %.lr.ph44, %._crit_edge
  %28 = getelementptr inbounds i16, ptr %.03141, i64 %9
  %29 = getelementptr inbounds i8, ptr %.043, i64 %2
  %30 = add nuw nsw i32 %.03042, 1
  %31 = load i16, ptr %10, align 2, !tbaa !59
  %32 = zext i16 %31 to i32
  %33 = icmp samesign ult i32 %30, %32
  br i1 %33, label %.lr.ph44, label %.loopexit36, !llvm.loop !186

.loopexit36:                                      ; preds = %.loopexit, %.preheader35, %3
  ret void
}